; Function Attrs: null_pointer_is_valid sspstrong uwtable
define internal noundef i32 @dissect_dir(ptr noundef %0, i32 noundef %1, ptr noundef %2, ptr noundef %3, ptr readnone captures(none) %4) #0 {
  %6 = load i32, ptr @hf_ndmp_file_names, align 4
  %7 = tail call i32 @dissect_rpc_array(ptr noundef %0, ptr noundef %2, ptr noundef %3, i32 noundef %1, ptr noundef nonnull @dissect_file_name, i32 noundef %6)
  %8 = load i32, ptr @hf_ndmp_file_node, align 4
  %9 = tail call ptr @proto_tree_add_item(ptr noundef %3, i32 noundef %8, ptr noundef %0, i32 noundef %7, i32 noundef 8, i32 noundef 0)
  %10 = add i32 %7, 8
  %11 = load i32, ptr @hf_ndmp_file_parent, align 4
  %12 = tail call ptr @proto_tree_add_item(ptr noundef %3, i32 noundef %11, ptr noundef %0, i32 noundef %10, i32 noundef 8, i32 noundef 0)
  %13 = add i32 %7, 16
  ret i32 %13
}